target datalayout = "e-m:e-p270:32:32-p271:32:32-p272:64:64-i64:64-i128:128-f80:128-n8:16:32:64-S128"
target triple = "x86_64-pc-linux-gnu"

%struct.PS_HintsRec_ = type { ptr, i32, i32, i32, [2 x %struct.PS_DimensionRec_] }
%struct.PS_DimensionRec_ = type { %struct.PS_Hint_TableRec_, %struct.PS_Mask_TableRec_, %struct.PS_Mask_TableRec_ }
%struct.PS_Hint_TableRec_ = type { i32, i32, ptr }
%struct.PS_Mask_TableRec_ = type { i32, i32, ptr }

; Function Attrs: nounwind uwtable
define internal i32 @ps_hints_close(ptr noundef %0, i32 noundef %1) #0 {
  %3 = alloca ptr, align 8
  %4 = alloca i32, align 4
  %5 = alloca i32, align 4
  %6 = alloca ptr, align 8
  %7 = alloca ptr, align 8
  store ptr %0, ptr %3, align 8
  store i32 %1, ptr %4, align 4
  %8 = load ptr, ptr %3, align 8
  %9 = getelementptr inbounds %struct.PS_HintsRec_, ptr %8, i32 0, i32 1
  %10 = load i32, ptr %9, align 8
  store i32 %10, ptr %5, align 4
  %11 = load i32, ptr %5, align 4
  %12 = icmp ne i32 %11, 0
  br i1 %12, label %34, label %13

13:                                               ; preds = %2
  %14 = load ptr, ptr %3, align 8
  %15 = getelementptr inbounds %struct.PS_HintsRec_, ptr %14, i32 0, i32 0
  %16 = load ptr, ptr %15, align 8
  store ptr %16, ptr %6, align 8
  %17 = load ptr, ptr %3, align 8
  %18 = getelementptr inbounds %struct.PS_HintsRec_, ptr %17, i32 0, i32 4
  %19 = getelementptr inbounds [2 x %struct.PS_DimensionRec_], ptr %18, i64 0, i64 0
  store ptr %19, ptr %7, align 8
  %20 = load ptr, ptr %7, align 8
  %21 = getelementptr inbounds %struct.PS_DimensionRec_, ptr %20, i64 0
  %22 = load i32, ptr %4, align 4
  %23 = load ptr, ptr %6, align 8
  %24 = call i32 @ps_dimension_end(ptr noundef %21, i32 noundef %22, ptr noundef %23)
  store i32 %24, ptr %5, align 4
  %25 = load i32, ptr %5, align 4
  %26 = icmp ne i32 %25, 0
  br i1 %26, label %33, label %27

27:                                               ; preds = %13
  %28 = load ptr, ptr %7, align 8
  %29 = getelementptr inbounds %struct.PS_DimensionRec_, ptr %28, i64 1
  %30 = load i32, ptr %4, align 4
  %31 = load ptr, ptr %6, align 8
  %32 = call i32 @ps_dimension_end(ptr noundef %29, i32 noundef %30, ptr noundef %31)
  store i32 %32, ptr %5, align 4
  br label %33

33:                                               ; preds = %27, %13
  br label %34

34:                                               ; preds = %33, %2
  %35 = load i32, ptr %5, align 4
  ret i32 %35
}

; Function Attrs: nounwind uwtable
define internal i32 @t2_hints_close(ptr noundef %0, i32 noundef %1) #0 {
  %3 = alloca ptr, align 8
  %4 = alloca i32, align 4
  store ptr %0, ptr %3, align 8
  store i32 %1, ptr %4, align 4
  %5 = load ptr, ptr %3, align 8
  %6 = load i32, ptr %4, align 4
  %7 = call i32 @ps_hints_close(ptr noundef %5, i32 noundef %6)
  ret i32 %7
}